target datalayout = "e-m:e-p270:32:32-p271:32:32-p272:64:64-i64:64-i128:128-f80:128-n8:16:32:64-S128"
target triple = "x86_64-unknown-linux-gnu"

%"class.icu_75::UnicodeString" = type { %"class.icu_75::Replaceable", %"union.icu_75::UnicodeString::StackBufferOrFields" }
%"class.icu_75::Replaceable" = type { %"class.icu_75::UObject" }
%"class.icu_75::UObject" = type { ptr }
%"union.icu_75::UnicodeString::StackBufferOrFields" = type { %struct.anon.0, [32 x i8] }
%struct.anon.0 = type { i16, i32, i32, ptr }
%"class.icu_75::CompoundTransliterator" = type { %"class.icu_75::Transliterator.base", ptr, i32, i32 }
%"class.icu_75::Transliterator.base" = type <{ %"class.icu_75::UObject", %"class.icu_75::UnicodeString", ptr, i32 }>
%"class.icu_75::Transliterator" = type <{ %"class.icu_75::UObject", %"class.icu_75::UnicodeString", ptr, i32, [4 x i8] }>

; Function Attrs: mustprogress nounwind uwtable
define linkonce_odr noundef i32 @_ZNK6icu_7514Transliterator23getMaximumContextLengthEv(ptr noundef nonnull align 8 dereferenceable(84) %this) #0 comdat align 2 {
entry:
  %this.addr = alloca ptr, align 8
  store ptr %this, ptr %this.addr, align 8
  %this1 = load ptr, ptr %this.addr, align 8
  %maximumContextLength = getelementptr inbounds %"class.icu_75::Transliterator", ptr %this1, i32 0, i32 3
  %0 = load i32, ptr %maximumContextLength, align 8
  ret i32 %0
}

; Function Attrs: mustprogress uwtable
define void @_ZN6icu_7522CompoundTransliterator27computeMaximumContextLengthEv(ptr noundef nonnull align 8 dereferenceable(104) %this) #1 align 2 {
entry:
  %this.addr = alloca ptr, align 8
  %max = alloca i32, align 4
  %i = alloca i32, align 4
  %len = alloca i32, align 4
  store ptr %this, ptr %this.addr, align 8
  %this1 = load ptr, ptr %this.addr, align 8
  store i32 0, ptr %max, align 4
  store i32 0, ptr %i, align 4
  br label %for.cond

for.cond:                                         ; preds = %for.inc, %entry
  %0 = load i32, ptr %i, align 4
  %count = getelementptr inbounds %"class.icu_75::CompoundTransliterator", ptr %this1, i32 0, i32 2
  %1 = load i32, ptr %count, align 8
  %cmp = icmp slt i32 %0, %1
  br i1 %cmp, label %for.body, label %for.end

for.body:                                         ; preds = %for.cond
  %trans = getelementptr inbounds %"class.icu_75::CompoundTransliterator", ptr %this1, i32 0, i32 1
  %2 = load ptr, ptr %trans, align 8
  %3 = load i32, ptr %i, align 4
  %idxprom = sext i32 %3 to i64
  %arrayidx = getelementptr inbounds ptr, ptr %2, i64 %idxprom
  %4 = load ptr, ptr %arrayidx, align 8
  %call = call noundef i32 @_ZNK6icu_7514Transliterator23getMaximumContextLengthEv(ptr noundef nonnull align 8 dereferenceable(84) %4)
  store i32 %call, ptr %len, align 4
  %5 = load i32, ptr %len, align 4
  %6 = load i32, ptr %max, align 4
  %cmp2 = icmp sgt i32 %5, %6
  br i1 %cmp2, label %if.then, label %if.end

if.then:                                          ; preds = %for.body
  %7 = load i32, ptr %len, align 4
  store i32 %7, ptr %max, align 4
  br label %if.end

if.end:                                           ; preds = %if.then, %for.body
  br label %for.inc

for.inc:                                          ; preds = %if.end
  %8 = load i32, ptr %i, align 4
  %inc = add nsw i32 %8, 1
  store i32 %inc, ptr %i, align 4
  br label %for.cond, !llvm.loop !10

for.end:                                          ; preds = %for.cond
  %9 = load i32, ptr %max, align 4
  call void @_ZN6icu_7514Transliterator23setMaximumContextLengthEi(ptr noundef nonnull align 8 dereferenceable(84) %this1, i32 noundef %9)
  ret void
}