; Function Attrs: mustprogress uwtable
define void @_ZN6icu_7522CompoundTransliterator27computeMaximumContextLengthEv(ptr noundef nonnull align 8 dereferenceable(104) %this) local_unnamed_addr #1 align 2 {
entry:
  %count = getelementptr inbounds i8, ptr %this, i64 96
  %0 = load i32, ptr %count, align 8
  %cmp5 = icmp sgt i32 %0, 0
  br i1 %cmp5, label %for.body.lr.ph, label %for.end

for.body.lr.ph:                                   ; preds = %entry
  %trans = getelementptr inbounds i8, ptr %this, i64 88
  %1 = load ptr, ptr %trans, align 8
  %wide.trip.count = zext nneg i32 %0 to i64
  br label %for.body

for.body:                                         ; preds = %for.body.lr.ph, %for.body
  %indvars.iv = phi i64 [ 0, %for.body.lr.ph ], [ %indvars.iv.next, %for.body ]
  %max.07 = phi i32 [ 0, %for.body.lr.ph ], [ %spec.select, %for.body ]
  %arrayidx = getelementptr inbounds ptr, ptr %1, i64 %indvars.iv
  %2 = load ptr, ptr %arrayidx, align 8
  %maximumContextLength.i = getelementptr inbounds i8, ptr %2, i64 80
  %3 = load i32, ptr %maximumContextLength.i, align 8
  %spec.select = tail call i32 @llvm.smax.i32(i32 %3, i32 %max.07)
  %indvars.iv.next = add nuw nsw i64 %indvars.iv, 1
  %exitcond.not = icmp eq i64 %indvars.iv.next, %wide.trip.count
  br i1 %exitcond.not, label %for.end, label %for.body, !llvm.loop !12

for.end:                                          ; preds = %for.body, %entry
  %max.0.lcssa = phi i32 [ 0, %entry ], [ %spec.select, %for.body ]
  tail call void @_ZN6icu_7514Transliterator23setMaximumContextLengthEi(ptr noundef nonnull align 8 dereferenceable(84) %this, i32 noundef %max.0.lcssa)
  ret void
}